target datalayout = "e-m:e-p270:32:32-p271:32:32-p272:64:64-i64:64-i128:128-f80:128-n8:16:32:64-S128"
target triple = "x86_64-unknown-linux-gnu"

%"class.node::inspector::MainThreadInterface" = type { %"class.std::enable_shared_from_this", %"class.std::deque", %"class.node::MutexBase", %"class.std::deque", i8, %"class.node::ConditionVariableBase", ptr, %"class.std::shared_ptr", %"class.std::unordered_map" }
%"class.std::enable_shared_from_this" = type { %"class.std::weak_ptr" }
%"class.std::weak_ptr" = type { %"class.std::__weak_ptr" }
%"class.std::__weak_ptr" = type { ptr, %"class.std::__weak_count" }
%"class.std::__weak_count" = type { ptr }
%"class.node::MutexBase" = type { %union.pthread_mutex_t }
%union.pthread_mutex_t = type { %struct.__pthread_mutex_s }
%struct.__pthread_mutex_s = type { i32, i32, i32, i32, i32, i16, i16, %struct.__pthread_internal_list }
%struct.__pthread_internal_list = type { ptr, ptr }
%"class.std::deque" = type { %"class.std::_Deque_base" }
%"class.std::_Deque_base" = type { %"struct.std::_Deque_base<std::unique_ptr<node::inspector::Request>, std::allocator<std::unique_ptr<node::inspector::Request>>>::_Deque_impl" }
%"struct.std::_Deque_base<std::unique_ptr<node::inspector::Request>, std::allocator<std::unique_ptr<node::inspector::Request>>>::_Deque_impl" = type { %"struct.std::_Deque_base<std::unique_ptr<node::inspector::Request>, std::allocator<std::unique_ptr<node::inspector::Request>>>::_Deque_impl_data" }
%"struct.std::_Deque_base<std::unique_ptr<node::inspector::Request>, std::allocator<std::unique_ptr<node::inspector::Request>>>::_Deque_impl_data" = type { ptr, i64, %"struct.std::_Deque_iterator", %"struct.std::_Deque_iterator" }
%"struct.std::_Deque_iterator" = type { ptr, ptr, ptr, ptr }
%"class.node::ConditionVariableBase" = type { %union.pthread_cond_t }
%union.pthread_cond_t = type { %struct.__pthread_cond_s }
%struct.__pthread_cond_s = type { %union.__atomic_wide_counter, %union.__atomic_wide_counter, [2 x i32], [2 x i32], i32, i32, [2 x i32] }
%union.__atomic_wide_counter = type { i64 }
%"class.std::shared_ptr" = type { %"class.std::__shared_ptr" }
%"class.std::__shared_ptr" = type { ptr, %"class.std::__shared_count" }
%"class.std::__shared_count" = type { ptr }
%"class.std::unordered_map" = type { %"class.std::_Hashtable" }
%"class.std::_Hashtable" = type { ptr, i64, %"struct.std::__detail::_Hash_node_base", i64, %"struct.std::__detail::_Prime_rehash_policy", ptr }
%"struct.std::__detail::_Hash_node_base" = type { ptr }
%"struct.std::__detail::_Prime_rehash_policy" = type { float, i64 }
%"class.node::MutexBase<node::LibuvMutexTraits>::ScopedLock" = type { ptr }

; Function Attrs: mustprogress nounwind uwtable
define linkonce_odr dso_local void @_ZN4node16LibuvMutexTraits12mutex_unlockEP15pthread_mutex_t(ptr noundef %mutex) #4 comdat align 2 {
entry:
  %mutex.addr = alloca ptr, align 8
  store ptr %mutex, ptr %mutex.addr, align 8
  %0 = load ptr, ptr %mutex.addr, align 8
  call void @uv_mutex_unlock(ptr noundef %0)
  ret void
}

; Function Attrs: mustprogress nounwind uwtable
define linkonce_odr dso_local void @_ZN4node16LibuvMutexTraits9cond_waitEP14pthread_cond_tP15pthread_mutex_t(ptr noundef %cond, ptr noundef %mutex) #4 comdat align 2 {
entry:
  %cond.addr = alloca ptr, align 8
  %mutex.addr = alloca ptr, align 8
  store ptr %cond, ptr %cond.addr, align 8
  store ptr %mutex, ptr %mutex.addr, align 8
  %0 = load ptr, ptr %cond.addr, align 8
  %1 = load ptr, ptr %mutex.addr, align 8
  call void @uv_cond_wait(ptr noundef %0, ptr noundef %1)
  ret void
}

; Function Attrs: mustprogress nounwind uwtable
define linkonce_odr dso_local void @_ZN4node16LibuvMutexTraits10mutex_lockEP15pthread_mutex_t(ptr noundef %mutex) #4 comdat align 2 {
entry:
  %mutex.addr = alloca ptr, align 8
  store ptr %mutex, ptr %mutex.addr, align 8
  %0 = load ptr, ptr %mutex.addr, align 8
  call void @uv_mutex_lock(ptr noundef %0)
  ret void
}

; Function Attrs: mustprogress nounwind uwtable
define linkonce_odr dso_local noundef zeroext i1 @_ZSteqRKSt15_Deque_iteratorISt10unique_ptrIN4node9inspector7RequestESt14default_deleteIS3_EERS6_PS6_ESB_(ptr noundef nonnull align 8 dereferenceable(32) %__x, ptr noundef nonnull align 8 dereferenceable(32) %__y) #4 comdat {
entry:
  %__x.addr = alloca ptr, align 8
  %__y.addr = alloca ptr, align 8
  store ptr %__x, ptr %__x.addr, align 8
  store ptr %__y, ptr %__y.addr, align 8
  %0 = load ptr, ptr %__x.addr, align 8
  %_M_cur = getelementptr inbounds %"struct.std::_Deque_iterator", ptr %0, i32 0, i32 0
  %1 = load ptr, ptr %_M_cur, align 8
  %2 = load ptr, ptr %__y.addr, align 8
  %_M_cur1 = getelementptr inbounds %"struct.std::_Deque_iterator", ptr %2, i32 0, i32 0
  %3 = load ptr, ptr %_M_cur1, align 8
  %cmp = icmp eq ptr %1, %3
  ret i1 %cmp
}

; Function Attrs: mustprogress nounwind uwtable
define linkonce_odr dso_local void @_ZN4node9MutexBaseINS_16LibuvMutexTraitsEE10ScopedLockD2Ev(ptr noundef nonnull align 8 dereferenceable(8) %this) unnamed_addr #4 comdat align 2 {
entry:
  %this.addr = alloca ptr, align 8
  store ptr %this, ptr %this.addr, align 8
  %this1 = load ptr, ptr %this.addr, align 8
  %mutex_ = getelementptr inbounds %"class.node::MutexBase<node::LibuvMutexTraits>::ScopedLock", ptr %this1, i32 0, i32 0
  %0 = load ptr, ptr %mutex_, align 8
  %mutex_2 = getelementptr inbounds %"class.node::MutexBase", ptr %0, i32 0, i32 0
  call void @_ZN4node16LibuvMutexTraits12mutex_unlockEP15pthread_mutex_t(ptr noundef %mutex_2)
  ret void
}

; Function Attrs: mustprogress nounwind uwtable
define linkonce_odr dso_local void @_ZN4node21ConditionVariableBaseINS_16LibuvMutexTraitsEE4WaitERKNS_9MutexBaseIS1_E10ScopedLockE(ptr noundef nonnull align 8 dereferenceable(48) %this, ptr noundef nonnull align 8 dereferenceable(8) %scoped_lock) #4 comdat align 2 {
entry:
  %this.addr = alloca ptr, align 8
  %scoped_lock.addr = alloca ptr, align 8
  store ptr %this, ptr %this.addr, align 8
  store ptr %scoped_lock, ptr %scoped_lock.addr, align 8
  %this1 = load ptr, ptr %this.addr, align 8
  %cond_ = getelementptr inbounds %"class.node::ConditionVariableBase", ptr %this1, i32 0, i32 0
  %0 = load ptr, ptr %scoped_lock.addr, align 8
  %mutex_ = getelementptr inbounds %"class.node::MutexBase<node::LibuvMutexTraits>::ScopedLock", ptr %0, i32 0, i32 0
  %1 = load ptr, ptr %mutex_, align 8
  %mutex_2 = getelementptr inbounds %"class.node::MutexBase", ptr %1, i32 0, i32 0
  call void @_ZN4node16LibuvMutexTraits9cond_waitEP14pthread_cond_tP15pthread_mutex_t(ptr noundef %cond_, ptr noundef %mutex_2)
  ret void
}

; Function Attrs: mustprogress nounwind uwtable
define linkonce_odr dso_local void @_ZN4node9MutexBaseINS_16LibuvMutexTraitsEE10ScopedLockC2ERKS2_(ptr noundef nonnull align 8 dereferenceable(8) %this, ptr noundef nonnull align 8 dereferenceable(40) %mutex) unnamed_addr #4 comdat align 2 {
entry:
  %this.addr = alloca ptr, align 8
  %mutex.addr = alloca ptr, align 8
  store ptr %this, ptr %this.addr, align 8
  store ptr %mutex, ptr %mutex.addr, align 8
  %this1 = load ptr, ptr %this.addr, align 8
  %mutex_ = getelementptr inbounds %"class.node::MutexBase<node::LibuvMutexTraits>::ScopedLock", ptr %this1, i32 0, i32 0
  %0 = load ptr, ptr %mutex.addr, align 8
  store ptr %0, ptr %mutex_, align 8
  %mutex_2 = getelementptr inbounds %"class.node::MutexBase<node::LibuvMutexTraits>::ScopedLock", ptr %this1, i32 0, i32 0
  %1 = load ptr, ptr %mutex_2, align 8
  %mutex_3 = getelementptr inbounds %"class.node::MutexBase", ptr %1, i32 0, i32 0
  call void @_ZN4node16LibuvMutexTraits10mutex_lockEP15pthread_mutex_t(ptr noundef %mutex_3)
  ret void
}

; Function Attrs: mustprogress nounwind uwtable
define linkonce_odr dso_local noundef zeroext i1 @_ZNKSt5dequeISt10unique_ptrIN4node9inspector7RequestESt14default_deleteIS3_EESaIS6_EE5emptyEv(ptr noundef nonnull align 8 dereferenceable(80) %this) #4 comdat align 2 {
entry:
  %this.addr = alloca ptr, align 8
  store ptr %this, ptr %this.addr, align 8
  %this1 = load ptr, ptr %this.addr, align 8
  %_M_impl = getelementptr inbounds %"class.std::_Deque_base", ptr %this1, i32 0, i32 0
  %_M_finish = getelementptr inbounds %"struct.std::_Deque_base<std::unique_ptr<node::inspector::Request>, std::allocator<std::unique_ptr<node::inspector::Request>>>::_Deque_impl_data", ptr %_M_impl, i32 0, i32 3
  %_M_impl2 = getelementptr inbounds %"class.std::_Deque_base", ptr %this1, i32 0, i32 0
  %_M_start = getelementptr inbounds %"struct.std::_Deque_base<std::unique_ptr<node::inspector::Request>, std::allocator<std::unique_ptr<node::inspector::Request>>>::_Deque_impl_data", ptr %_M_impl2, i32 0, i32 2
  %call = call noundef zeroext i1 @_ZSteqRKSt15_Deque_iteratorISt10unique_ptrIN4node9inspector7RequestESt14default_deleteIS3_EERS6_PS6_ESB_(ptr noundef nonnull align 8 dereferenceable(32) %_M_finish, ptr noundef nonnull align 8 dereferenceable(32) %_M_start) #3
  ret i1 %call
}

; Function Attrs: mustprogress nounwind uwtable
define dso_local noundef zeroext i1 @_ZN4node9inspector19MainThreadInterface20WaitForFrontendEventEv(ptr noundef nonnull align 8 dereferenceable(352) %this) #4 align 2 {
entry:
  %this.addr = alloca ptr, align 8
  %scoped_lock = alloca %"class.node::MutexBase<node::LibuvMutexTraits>::ScopedLock", align 8
  store ptr %this, ptr %this.addr, align 8
  %this1 = load ptr, ptr %this.addr, align 8
  %dispatching_messages_ = getelementptr inbounds %"class.node::inspector::MainThreadInterface", ptr %this1, i32 0, i32 4
  store i8 0, ptr %dispatching_messages_, align 8
  %dispatching_message_queue_ = getelementptr inbounds %"class.node::inspector::MainThreadInterface", ptr %this1, i32 0, i32 3
  %call = call noundef zeroext i1 @_ZNKSt5dequeISt10unique_ptrIN4node9inspector7RequestESt14default_deleteIS3_EESaIS6_EE5emptyEv(ptr noundef nonnull align 8 dereferenceable(80) %dispatching_message_queue_) #3
  br i1 %call, label %if.then, label %if.end

if.then:                                          ; preds = %entry
  %requests_lock_ = getelementptr inbounds %"class.node::inspector::MainThreadInterface", ptr %this1, i32 0, i32 2
  call void @_ZN4node9MutexBaseINS_16LibuvMutexTraitsEE10ScopedLockC2ERKS2_(ptr noundef nonnull align 8 dereferenceable(8) %scoped_lock, ptr noundef nonnull align 8 dereferenceable(40) %requests_lock_)
  br label %while.cond

while.cond:                                       ; preds = %while.body, %if.then
  %requests_ = getelementptr inbounds %"class.node::inspector::MainThreadInterface", ptr %this1, i32 0, i32 1
  %call2 = call noundef zeroext i1 @_ZNKSt5dequeISt10unique_ptrIN4node9inspector7RequestESt14default_deleteIS3_EESaIS6_EE5emptyEv(ptr noundef nonnull align 8 dereferenceable(80) %requests_) #3
  br i1 %call2, label %while.body, label %while.end

while.body:                                       ; preds = %while.cond
  %incoming_message_cond_ = getelementptr inbounds %"class.node::inspector::MainThreadInterface", ptr %this1, i32 0, i32 5
  call void @_ZN4node21ConditionVariableBaseINS_16LibuvMutexTraitsEE4WaitERKNS_9MutexBaseIS1_E10ScopedLockE(ptr noundef nonnull align 8 dereferenceable(48) %incoming_message_cond_, ptr noundef nonnull align 8 dereferenceable(8) %scoped_lock)
  br label %while.cond, !llvm.loop !5

while.end:                                        ; preds = %while.cond
  call void @_ZN4node9MutexBaseINS_16LibuvMutexTraitsEE10ScopedLockD2Ev(ptr noundef nonnull align 8 dereferenceable(8) %scoped_lock) #3
  br label %if.end

if.end:                                           ; preds = %while.end, %entry
  ret i1 true
}