; Function Attrs: mustprogress nounwind uwtable
define dso_local noundef zeroext i1 @_ZN4node9inspector19MainThreadInterface20WaitForFrontendEventEv(ptr noundef nonnull align 8 dereferenceable(352) %this) local_unnamed_addr #3 align 2 {
entry:
  %dispatching_messages_ = getelementptr inbounds i8, ptr %this, i64 216
  store i8 0, ptr %dispatching_messages_, align 8
  %_M_finish.i = getelementptr inbounds i8, ptr %this, i64 184
  %_M_start.i = getelementptr inbounds i8, ptr %this, i64 152
  %0 = load ptr, ptr %_M_finish.i, align 8
  %1 = load ptr, ptr %_M_start.i, align 8
  %cmp.i.i = icmp eq ptr %0, %1
  br i1 %cmp.i.i, label %if.then, label %if.end

if.then:                                          ; preds = %entry
  %requests_lock_ = getelementptr inbounds i8, ptr %this, i64 96
  tail call void @uv_mutex_lock(ptr noundef nonnull %requests_lock_) #20
  %_M_finish.i1 = getelementptr inbounds i8, ptr %this, i64 64
  %_M_start.i2 = getelementptr inbounds i8, ptr %this, i64 32
  %2 = load ptr, ptr %_M_finish.i1, align 8
  %3 = load ptr, ptr %_M_start.i2, align 8
  %cmp.i.i35 = icmp eq ptr %2, %3
  br i1 %cmp.i.i35, label %while.body.lr.ph, label %while.end

while.body.lr.ph:                                 ; preds = %if.then
  %incoming_message_cond_ = getelementptr inbounds i8, ptr %this, i64 224
  br label %while.body

while.body:                                       ; preds = %while.body.lr.ph, %while.body
  tail call void @uv_cond_wait(ptr noundef nonnull %incoming_message_cond_, ptr noundef nonnull %requests_lock_) #20
  %4 = load ptr, ptr %_M_finish.i1, align 8
  %5 = load ptr, ptr %_M_start.i2, align 8
  %cmp.i.i3 = icmp eq ptr %4, %5
  br i1 %cmp.i.i3, label %while.body, label %while.end, !llvm.loop !25

while.end:                                        ; preds = %while.body, %if.then
  tail call void @uv_mutex_unlock(ptr noundef nonnull %requests_lock_) #20
  br label %if.end

if.end:                                           ; preds = %while.end, %entry
  ret i1 true
}